target datalayout = "e-m:e-p270:32:32-p271:32:32-p272:64:64-i64:64-i128:128-f80:128-n8:16:32:64-S128"
target triple = "x86_64-pc-linux-gnu"

%struct.XFadeContext = type { ptr, i32, i64, i64, ptr, i32, i32, i32, i64, i64, i64, i64, i32, [2 x i32], [2 x ptr], i32, [4 x i16], [4 x i16], ptr, ptr }
%struct.AVRational = type { i32, i32 }
%struct.AVFrame = type { [8 x ptr], [8 x i32], ptr, i32, i32, i32, i32, i32, %struct.AVRational, i64, i64, %struct.AVRational, i32, ptr, i32, i32, [8 x ptr], ptr, i32, ptr, i32, i32, i32, i32, i32, i32, i32, i64, ptr, i32, ptr, ptr, i64, i64, i64, i64, ptr, %struct.AVChannelLayout, i64 }
%struct.AVChannelLayout = type { i32, i32, %union.anon.1, ptr }
%union.anon.1 = type { i64 }

; Function Attrs: alwaysinline nounwind willreturn memory(none) uwtable
define internal double @av_clipd_c(double noundef %0, double noundef %1, double noundef %2) #8 {
  %4 = alloca double, align 8
  %5 = alloca double, align 8
  %6 = alloca double, align 8
  store double %0, ptr %4, align 8, !tbaa !93
  store double %1, ptr %5, align 8, !tbaa !93
  store double %2, ptr %6, align 8, !tbaa !93
  %7 = load double, ptr %4, align 8, !tbaa !93
  %8 = load double, ptr %5, align 8, !tbaa !93
  %9 = fcmp nsz ogt double %7, %8
  br i1 %9, label %10, label %12

10:                                               ; preds = %3
  %11 = load double, ptr %4, align 8, !tbaa !93
  br label %14

12:                                               ; preds = %3
  %13 = load double, ptr %5, align 8, !tbaa !93
  br label %14

14:                                               ; preds = %12, %10
  %15 = phi nsz double [ %11, %10 ], [ %13, %12 ]
  %16 = load double, ptr %6, align 8, !tbaa !93
  %17 = fcmp nsz ogt double %15, %16
  br i1 %17, label %18, label %20

18:                                               ; preds = %14
  %19 = load double, ptr %6, align 8, !tbaa !93
  br label %30

20:                                               ; preds = %14
  %21 = load double, ptr %4, align 8, !tbaa !93
  %22 = load double, ptr %5, align 8, !tbaa !93
  %23 = fcmp nsz ogt double %21, %22
  br i1 %23, label %24, label %26

24:                                               ; preds = %20
  %25 = load double, ptr %4, align 8, !tbaa !93
  br label %28

26:                                               ; preds = %20
  %27 = load double, ptr %5, align 8, !tbaa !93
  br label %28

28:                                               ; preds = %26, %24
  %29 = phi nsz double [ %25, %24 ], [ %27, %26 ]
  br label %30

30:                                               ; preds = %28, %18
  %31 = phi nsz double [ %19, %18 ], [ %29, %28 ]
  ret double %31
}

; Function Attrs: inlinehint nounwind uwtable
define internal double @getpix(ptr noundef %0, double noundef %1, double noundef %2, i32 noundef %3, i32 noundef %4) #4 {
  %6 = alloca double, align 8
  %7 = alloca ptr, align 8
  %8 = alloca double, align 8
  %9 = alloca double, align 8
  %10 = alloca i32, align 4
  %11 = alloca i32, align 4
  %12 = alloca ptr, align 8
  %13 = alloca ptr, align 8
  %14 = alloca ptr, align 8
  %15 = alloca i32, align 4
  %16 = alloca i32, align 4
  %17 = alloca i32, align 4
  %18 = alloca i32, align 4
  %19 = alloca i32, align 4
  %20 = alloca ptr, align 8
  %21 = alloca i32, align 4
  store ptr %0, ptr %7, align 8, !tbaa !462
  store double %1, ptr %8, align 8, !tbaa !93
  store double %2, ptr %9, align 8, !tbaa !93
  store i32 %3, ptr %10, align 4, !tbaa !32
  store i32 %4, ptr %11, align 4, !tbaa !32
  call void @llvm.lifetime.start.p0(i64 8, ptr %12) #10
  %22 = load ptr, ptr %7, align 8, !tbaa !462
  store ptr %22, ptr %12, align 8, !tbaa !22
  call void @llvm.lifetime.start.p0(i64 8, ptr %13) #10
  %23 = load ptr, ptr %12, align 8, !tbaa !22
  %24 = getelementptr inbounds nuw %struct.XFadeContext, ptr %23, i32 0, i32 14
  %25 = load i32, ptr %11, align 4, !tbaa !32
  %26 = sext i32 %25 to i64
  %27 = getelementptr inbounds [2 x ptr], ptr %24, i64 0, i64 %26
  %28 = load ptr, ptr %27, align 8, !tbaa !36
  store ptr %28, ptr %13, align 8, !tbaa !36
  call void @llvm.lifetime.start.p0(i64 8, ptr %14) #10
  %29 = load ptr, ptr %13, align 8, !tbaa !36
  %30 = getelementptr inbounds nuw %struct.AVFrame, ptr %29, i32 0, i32 0
  %31 = load i32, ptr %10, align 4, !tbaa !32
  %32 = load ptr, ptr %12, align 8, !tbaa !22
  %33 = getelementptr inbounds nuw %struct.XFadeContext, ptr %32, i32 0, i32 5
  %34 = load i32, ptr %33, align 8, !tbaa !82
  %35 = sub nsw i32 %34, 1
  %36 = icmp sgt i32 %31, %35
  br i1 %36, label %37, label %42

37:                                               ; preds = %5
  %38 = load ptr, ptr %12, align 8, !tbaa !22
  %39 = getelementptr inbounds nuw %struct.XFadeContext, ptr %38, i32 0, i32 5
  %40 = load i32, ptr %39, align 8, !tbaa !82
  %41 = sub nsw i32 %40, 1
  br label %44

42:                                               ; preds = %5
  %43 = load i32, ptr %10, align 4, !tbaa !32
  br label %44

44:                                               ; preds = %42, %37
  %45 = phi i32 [ %41, %37 ], [ %43, %42 ]
  %46 = sext i32 %45 to i64
  %47 = getelementptr inbounds [8 x ptr], ptr %30, i64 0, i64 %46
  %48 = load ptr, ptr %47, align 8, !tbaa !96
  store ptr %48, ptr %14, align 8, !tbaa !96
  call void @llvm.lifetime.start.p0(i64 4, ptr %15) #10
  %49 = load ptr, ptr %13, align 8, !tbaa !36
  %50 = getelementptr inbounds nuw %struct.AVFrame, ptr %49, i32 0, i32 1
  %51 = load i32, ptr %10, align 4, !tbaa !32
  %52 = load ptr, ptr %12, align 8, !tbaa !22
  %53 = getelementptr inbounds nuw %struct.XFadeContext, ptr %52, i32 0, i32 5
  %54 = load i32, ptr %53, align 8, !tbaa !82
  %55 = sub nsw i32 %54, 1
  %56 = icmp sgt i32 %51, %55
  br i1 %56, label %57, label %62

57:                                               ; preds = %44
  %58 = load ptr, ptr %12, align 8, !tbaa !22
  %59 = getelementptr inbounds nuw %struct.XFadeContext, ptr %58, i32 0, i32 5
  %60 = load i32, ptr %59, align 8, !tbaa !82
  %61 = sub nsw i32 %60, 1
  br label %64

62:                                               ; preds = %44
  %63 = load i32, ptr %10, align 4, !tbaa !32
  br label %64

64:                                               ; preds = %62, %57
  %65 = phi i32 [ %61, %57 ], [ %63, %62 ]
  %66 = sext i32 %65 to i64
  %67 = getelementptr inbounds [8 x i32], ptr %50, i64 0, i64 %66
  %68 = load i32, ptr %67, align 4, !tbaa !32
  store i32 %68, ptr %15, align 4, !tbaa !32
  call void @llvm.lifetime.start.p0(i64 4, ptr %16) #10
  %69 = load ptr, ptr %13, align 8, !tbaa !36
  %70 = getelementptr inbounds nuw %struct.AVFrame, ptr %69, i32 0, i32 3
  %71 = load i32, ptr %70, align 8, !tbaa !92
  store i32 %71, ptr %16, align 4, !tbaa !32
  call void @llvm.lifetime.start.p0(i64 4, ptr %17) #10
  %72 = load ptr, ptr %13, align 8, !tbaa !36
  %73 = getelementptr inbounds nuw %struct.AVFrame, ptr %72, i32 0, i32 4
  %74 = load i32, ptr %73, align 4, !tbaa !95
  store i32 %74, ptr %17, align 4, !tbaa !32
  call void @llvm.lifetime.start.p0(i64 4, ptr %18) #10
  call void @llvm.lifetime.start.p0(i64 4, ptr %19) #10
  %75 = load double, ptr %8, align 8, !tbaa !93
  %76 = load i32, ptr %16, align 4, !tbaa !32
  %77 = sub nsw i32 %76, 1
  %78 = sitofp i32 %77 to double
  %79 = call nsz double @av_clipd_c(double noundef %75, double noundef 0.000000e+00, double noundef %78) #11
  %80 = fptosi double %79 to i32
  store i32 %80, ptr %18, align 4, !tbaa !32
  %81 = load double, ptr %9, align 8, !tbaa !93
  %82 = load i32, ptr %17, align 4, !tbaa !32
  %83 = sub nsw i32 %82, 1
  %84 = sitofp i32 %83 to double
  %85 = call nsz double @av_clipd_c(double noundef %81, double noundef 0.000000e+00, double noundef %84) #11
  %86 = fptosi double %85 to i32
  store i32 %86, ptr %19, align 4, !tbaa !32
  %87 = load ptr, ptr %12, align 8, !tbaa !22
  %88 = getelementptr inbounds nuw %struct.XFadeContext, ptr %87, i32 0, i32 6
  %89 = load i32, ptr %88, align 4, !tbaa !78
  %90 = icmp sgt i32 %89, 8
  br i1 %90, label %91, label %105

91:                                               ; preds = %64
  call void @llvm.lifetime.start.p0(i64 8, ptr %20) #10
  %92 = load ptr, ptr %14, align 8, !tbaa !96
  store ptr %92, ptr %20, align 8, !tbaa !101
  %93 = load i32, ptr %15, align 4, !tbaa !32
  %94 = sdiv i32 %93, 2
  store i32 %94, ptr %15, align 4, !tbaa !32
  %95 = load ptr, ptr %20, align 8, !tbaa !101
  %96 = load i32, ptr %18, align 4, !tbaa !32
  %97 = load i32, ptr %19, align 4, !tbaa !32
  %98 = load i32, ptr %15, align 4, !tbaa !32
  %99 = mul nsw i32 %97, %98
  %100 = add nsw i32 %96, %99
  %101 = sext i32 %100 to i64
  %102 = getelementptr inbounds i16, ptr %95, i64 %101
  %103 = load i16, ptr %102, align 2, !tbaa !84
  %104 = uitofp i16 %103 to double
  store double %104, ptr %6, align 8
  store i32 1, ptr %21, align 4
  call void @llvm.lifetime.end.p0(i64 8, ptr %20) #10
  br label %116

105:                                              ; preds = %64
  %106 = load ptr, ptr %14, align 8, !tbaa !96
  %107 = load i32, ptr %18, align 4, !tbaa !32
  %108 = load i32, ptr %19, align 4, !tbaa !32
  %109 = load i32, ptr %15, align 4, !tbaa !32
  %110 = mul nsw i32 %108, %109
  %111 = add nsw i32 %107, %110
  %112 = sext i32 %111 to i64
  %113 = getelementptr inbounds i8, ptr %106, i64 %112
  %114 = load i8, ptr %113, align 1, !tbaa !97
  %115 = uitofp i8 %114 to double
  store double %115, ptr %6, align 8
  store i32 1, ptr %21, align 4
  br label %116

116:                                              ; preds = %105, %91
  call void @llvm.lifetime.end.p0(i64 4, ptr %19) #10
  call void @llvm.lifetime.end.p0(i64 4, ptr %18) #10
  call void @llvm.lifetime.end.p0(i64 4, ptr %17) #10
  call void @llvm.lifetime.end.p0(i64 4, ptr %16) #10
  call void @llvm.lifetime.end.p0(i64 4, ptr %15) #10
  call void @llvm.lifetime.end.p0(i64 8, ptr %14) #10
  call void @llvm.lifetime.end.p0(i64 8, ptr %13) #10
  call void @llvm.lifetime.end.p0(i64 8, ptr %12) #10
  %117 = load double, ptr %6, align 8
  ret double %117
}

; Function Attrs: nounwind uwtable
define internal double @a0(ptr noundef %0, double noundef %1, double noundef %2) #1 {
  %4 = alloca ptr, align 8
  %5 = alloca double, align 8
  %6 = alloca double, align 8
  store ptr %0, ptr %4, align 8, !tbaa !462
  store double %1, ptr %5, align 8, !tbaa !93
  store double %2, ptr %6, align 8, !tbaa !93
  %7 = load ptr, ptr %4, align 8, !tbaa !462
  %8 = load double, ptr %5, align 8, !tbaa !93
  %9 = load double, ptr %6, align 8, !tbaa !93
  %10 = call nsz double @getpix(ptr noundef %7, double noundef %8, double noundef %9, i32 noundef 0, i32 noundef 0)
  ret double %10
}